target datalayout = "e-m:e-p270:32:32-p271:32:32-p272:64:64-i64:64-i128:128-f80:128-n8:16:32:64-S128"
target triple = "x86_64-pc-linux-gnu"

%struct.oidset = type { %struct.kh_oid_set }
%struct.kh_oid_set = type { i32, i32, i32, i32, ptr, ptr, ptr }
%struct.packed_git = type { %struct.hashmap_entry, ptr, %struct.list_head, ptr, i64, ptr, i64, i32, i64, %struct.oidset, i32, i64, i32, i32, i8, [32 x i8], ptr, ptr, ptr, i64, ptr, i64, ptr, [0 x i8] }
%struct.hashmap_entry = type { ptr, i32 }
%struct.list_head = type { ptr, ptr }

; Function Attrs: nounwind uwtable
define internal i32 @existing_cruft_pack_cmp(ptr noundef %0, ptr noundef %1) #0 {
  %3 = alloca i32, align 4
  %4 = alloca ptr, align 8
  %5 = alloca ptr, align 8
  %6 = alloca ptr, align 8
  %7 = alloca ptr, align 8
  %8 = alloca i32, align 4
  store ptr %0, ptr %4, align 8, !tbaa !97
  store ptr %1, ptr %5, align 8, !tbaa !97
  call void @llvm.lifetime.start.p0(i64 8, ptr %6) #10
  %9 = load ptr, ptr %4, align 8, !tbaa !97
  %10 = load ptr, ptr %9, align 8, !tbaa !63
  store ptr %10, ptr %6, align 8, !tbaa !63
  call void @llvm.lifetime.start.p0(i64 8, ptr %7) #10
  %11 = load ptr, ptr %5, align 8, !tbaa !97
  %12 = load ptr, ptr %11, align 8, !tbaa !63
  store ptr %12, ptr %7, align 8, !tbaa !63
  %13 = load ptr, ptr %6, align 8, !tbaa !63
  %14 = getelementptr inbounds nuw %struct.packed_git, ptr %13, i32 0, i32 4
  %15 = load i64, ptr %14, align 8, !tbaa !121
  %16 = load ptr, ptr %7, align 8, !tbaa !63
  %17 = getelementptr inbounds nuw %struct.packed_git, ptr %16, i32 0, i32 4
  %18 = load i64, ptr %17, align 8, !tbaa !121
  %19 = icmp slt i64 %15, %18
  br i1 %19, label %20, label %21

20:                                               ; preds = %2
  store i32 -1, ptr %3, align 4
  store i32 1, ptr %8, align 4
  br label %31

21:                                               ; preds = %2
  %22 = load ptr, ptr %6, align 8, !tbaa !63
  %23 = getelementptr inbounds nuw %struct.packed_git, ptr %22, i32 0, i32 4
  %24 = load i64, ptr %23, align 8, !tbaa !121
  %25 = load ptr, ptr %7, align 8, !tbaa !63
  %26 = getelementptr inbounds nuw %struct.packed_git, ptr %25, i32 0, i32 4
  %27 = load i64, ptr %26, align 8, !tbaa !121
  %28 = icmp sgt i64 %24, %27
  br i1 %28, label %29, label %30

29:                                               ; preds = %21
  store i32 1, ptr %3, align 4
  store i32 1, ptr %8, align 4
  br label %31

30:                                               ; preds = %21
  store i32 0, ptr %3, align 4
  store i32 1, ptr %8, align 4
  br label %31

31:                                               ; preds = %30, %29, %20
  call void @llvm.lifetime.end.p0(i64 8, ptr %7) #10
  call void @llvm.lifetime.end.p0(i64 8, ptr %6) #10
  %32 = load i32, ptr %3, align 4
  ret i32 %32
}