; Function Attrs: mustprogress nofree norecurse nosync nounwind willreturn memory(read, inaccessiblemem: none) uwtable
define internal range(i32 -1, 2) i32 @existing_cruft_pack_cmp(ptr noundef readonly captures(none) %0, ptr noundef readonly captures(none) %1) #13 {
  %3 = load ptr, ptr %0, align 8, !tbaa !54
  %4 = load ptr, ptr %1, align 8, !tbaa !54
  %5 = getelementptr inbounds nuw i8, ptr %3, i64 48
  %6 = load i64, ptr %5, align 8, !tbaa !52
  %7 = getelementptr inbounds nuw i8, ptr %4, i64 48
  %8 = load i64, ptr %7, align 8, !tbaa !52
  %.0 = tail call i32 @llvm.scmp.i32.i64(i64 %6, i64 %8)
  ret i32 %.0
}